; Function Attrs: nounwind uwtable
define void @av_image_copy_plane(ptr noundef writeonly captures(address_is_null) %0, i32 noundef %1, ptr noundef readonly captures(address_is_null) %2, i32 noundef %3, i32 noundef %4, i32 noundef %5) local_unnamed_addr #3 {
  %7 = sext i32 %1 to i64
  %8 = sext i32 %3 to i64
  %9 = sext i32 %4 to i64
  %10 = icmp ne ptr %0, null
  %11 = icmp ne ptr %2, null
  %or.cond.i = and i1 %10, %11
  br i1 %or.cond.i, label %12, label %image_copy_plane.exit

12:                                               ; preds = %6
  %13 = tail call i64 @llvm.abs.i64(i64 %8, i1 true)
  %.not.i = icmp slt i64 %13, %9
  br i1 %.not.i, label %14, label %15

14:                                               ; preds = %12
  tail call void (ptr, i32, ptr, ...) @av_log(ptr noundef null, i32 noundef 0, ptr noundef nonnull @.str.3, ptr noundef nonnull @.str.8, ptr noundef nonnull @.str.5, i32 noundef 350) #11
  tail call void @abort() #13
  unreachable

15:                                               ; preds = %12
  %16 = tail call i64 @llvm.abs.i64(i64 %7, i1 true)
  %.not24.i = icmp slt i64 %16, %9
  br i1 %.not24.i, label %18, label %.preheader.i

.preheader.i:                                     ; preds = %15
  %17 = icmp sgt i32 %5, 0
  br i1 %17, label %.lr.ph.i, label %image_copy_plane.exit

18:                                               ; preds = %15
  tail call void (ptr, i32, ptr, ...) @av_log(ptr noundef null, i32 noundef 0, ptr noundef nonnull @.str.3, ptr noundef nonnull @.str.9, ptr noundef nonnull @.str.5, i32 noundef 351) #11
  tail call void @abort() #13
  unreachable

.lr.ph.i:                                         ; preds = %.preheader.i, %.lr.ph.i
  %.027.i = phi i32 [ %21, %.lr.ph.i ], [ %5, %.preheader.i ]
  %.01926.i = phi ptr [ %19, %.lr.ph.i ], [ %0, %.preheader.i ]
  %.02025.i = phi ptr [ %20, %.lr.ph.i ], [ %2, %.preheader.i ]
  tail call void @llvm.memcpy.p0.p0.i64(ptr align 1 %.01926.i, ptr align 1 %.02025.i, i64 %9, i1 false)
  %19 = getelementptr inbounds i8, ptr %.01926.i, i64 %7
  %20 = getelementptr inbounds i8, ptr %.02025.i, i64 %8
  %21 = add nsw i32 %.027.i, -1
  %22 = icmp samesign ugt i32 %.027.i, 1
  br i1 %22, label %.lr.ph.i, label %image_copy_plane.exit, !llvm.loop !36

image_copy_plane.exit:                            ; preds = %.lr.ph.i, %6, %.preheader.i
  ret void
}